; Function Attrs: mustprogress uwtable
define void @_ZN7openvdb5v11_02io16getMappedFilePtrERSt8ios_base(ptr noalias nocapture writeonly sret(%"class.std::shared_ptr.30") align 8 %agg.result, ptr noundef nonnull align 8 dereferenceable(216) %strm) local_unnamed_addr #6 personality ptr @__gxx_personality_v0 {
entry:
  %0 = load atomic i8, ptr @_ZGVZN7openvdb5v11_02io12_GLOBAL__N_113GetSteamStateEvE12sStreamState acquire, align 8
  %guard.uninitialized.i = icmp eq i8 %0, 0
  br i1 %guard.uninitialized.i, label %init.check.i, label %_ZN7openvdb5v11_02io12_GLOBAL__N_113GetSteamStateEv.exit, !prof !8

init.check.i:                                     ; preds = %entry
  %1 = tail call i32 @__cxa_guard_acquire(ptr nonnull @_ZGVZN7openvdb5v11_02io12_GLOBAL__N_113GetSteamStateEvE12sStreamState) #25
  %tobool.not.i = icmp eq i32 %1, 0
  br i1 %tobool.not.i, label %_ZN7openvdb5v11_02io12_GLOBAL__N_113GetSteamStateEv.exit, label %init.i

init.i:                                           ; preds = %init.check.i
  invoke fastcc void @_ZN7openvdb5v11_02io12_GLOBAL__N_111StreamStateC2Ev()
          to label %invoke.cont.i unwind label %lpad.i

invoke.cont.i:                                    ; preds = %init.i
  %2 = tail call i32 @__cxa_atexit(ptr nonnull @_ZN7openvdb5v11_02io12_GLOBAL__N_111StreamStateD2Ev, ptr nonnull @_ZZN7openvdb5v11_02io12_GLOBAL__N_113GetSteamStateEvE12sStreamState, ptr nonnull @__dso_handle) #25
  tail call void @__cxa_guard_release(ptr nonnull @_ZGVZN7openvdb5v11_02io12_GLOBAL__N_113GetSteamStateEvE12sStreamState) #25
  br label %_ZN7openvdb5v11_02io12_GLOBAL__N_113GetSteamStateEv.exit

lpad.i:                                           ; preds = %init.i
  %3 = landingpad { ptr, i32 }
          cleanup
  tail call void @__cxa_guard_abort(ptr nonnull @_ZGVZN7openvdb5v11_02io12_GLOBAL__N_113GetSteamStateEvE12sStreamState) #25
  resume { ptr, i32 } %3

_ZN7openvdb5v11_02io12_GLOBAL__N_113GetSteamStateEv.exit: ; preds = %entry, %init.check.i, %invoke.cont.i
  %4 = load i32, ptr getelementptr inbounds (%"struct.openvdb::v11_0::io::(anonymous namespace)::StreamState", ptr @_ZZN7openvdb5v11_02io12_GLOBAL__N_113GetSteamStateEvE12sStreamState, i64 0, i32 9), align 4
  %_M_word_size.i = getelementptr inbounds i8, ptr %strm, i64 192
  %5 = load i32, ptr %_M_word_size.i, align 8
  %cmp.i = icmp ugt i32 %5, %4
  br i1 %cmp.i, label %cond.true.i, label %cond.false.i

cond.true.i:                                      ; preds = %_ZN7openvdb5v11_02io12_GLOBAL__N_113GetSteamStateEv.exit
  %_M_word.i = getelementptr inbounds i8, ptr %strm, i64 200
  %6 = load ptr, ptr %_M_word.i, align 8
  %idxprom.i = sext i32 %4 to i64
  %arrayidx.i = getelementptr inbounds %"struct.std::ios_base::_Words", ptr %6, i64 %idxprom.i
  br label %_ZNSt8ios_base5pwordEi.exit

cond.false.i:                                     ; preds = %_ZN7openvdb5v11_02io12_GLOBAL__N_113GetSteamStateEv.exit
  %call.i = tail call noundef nonnull align 8 dereferenceable(16) ptr @_ZNSt8ios_base13_M_grow_wordsEib(ptr noundef nonnull align 8 dereferenceable(216) %strm, i32 noundef %4, i1 noundef zeroext false)
  br label %_ZNSt8ios_base5pwordEi.exit

_ZNSt8ios_base5pwordEi.exit:                      ; preds = %cond.true.i, %cond.false.i
  %cond-lvalue.i = phi ptr [ %arrayidx.i, %cond.true.i ], [ %call.i, %cond.false.i ]
  %7 = load ptr, ptr %cond-lvalue.i, align 8
  %tobool.not = icmp eq ptr %7, null
  br i1 %tobool.not, label %if.end, label %if.then

if.then:                                          ; preds = %_ZNSt8ios_base5pwordEi.exit
  %8 = load ptr, ptr %7, align 8
  store ptr %8, ptr %agg.result, align 8
  %_M_refcount.i.i = getelementptr inbounds i8, ptr %agg.result, i64 8
  %_M_refcount3.i.i = getelementptr inbounds i8, ptr %7, i64 8
  %9 = load ptr, ptr %_M_refcount3.i.i, align 8
  store ptr %9, ptr %_M_refcount.i.i, align 8
  %cmp.not.i.i.i = icmp eq ptr %9, null
  br i1 %cmp.not.i.i.i, label %return, label %if.then.i.i.i

if.then.i.i.i:                                    ; preds = %if.then
  %_M_use_count.i.i.i.i = getelementptr inbounds i8, ptr %9, i64 8
  %10 = load i8, ptr @__libc_single_threaded, align 1
  %tobool.i.i.not.i.i.i.i = icmp eq i8 %10, 0
  br i1 %tobool.i.i.not.i.i.i.i, label %if.else.i.i.i.i.i, label %if.then.i.i.i.i.i

if.then.i.i.i.i.i:                                ; preds = %if.then.i.i.i
  %11 = load i32, ptr %_M_use_count.i.i.i.i, align 4
  %add.i.i.i.i.i = add nsw i32 %11, 1
  store i32 %add.i.i.i.i.i, ptr %_M_use_count.i.i.i.i, align 4
  br label %return

if.else.i.i.i.i.i:                                ; preds = %if.then.i.i.i
  %12 = atomicrmw volatile add ptr %_M_use_count.i.i.i.i, i32 1 acq_rel, align 4
  br label %return

if.end:                                           ; preds = %_ZNSt8ios_base5pwordEi.exit
  tail call void @llvm.memset.p0.i64(ptr noundef nonnull align 8 dereferenceable(16) %agg.result, i8 0, i64 16, i1 false)
  br label %return

return:                                           ; preds = %if.else.i.i.i.i.i, %if.then.i.i.i.i.i, %if.then, %if.end
  ret void
}